target datalayout = "e-m:e-p270:32:32-p271:32:32-p272:64:64-i64:64-i128:128-f80:128-n8:16:32:64-S128"
target triple = "x86_64-pc-linux-gnu"

%struct.item_s = type { i32, %union.s, ptr, ptr }
%union.s = type { ptr }

@G = internal global ptr null, align 8

; Function Attrs: nounwind uwtable
define internal void @delete_items(ptr noundef %0) #0 {
  %2 = alloca ptr, align 8
  %3 = alloca ptr, align 8
  %4 = alloca ptr, align 8
  store ptr %0, ptr %2, align 8, !tbaa !35
  call void @llvm.lifetime.start.p0(i64 8, ptr %3) #14
  call void @llvm.lifetime.start.p0(i64 8, ptr %4) #14
  %5 = load ptr, ptr %2, align 8, !tbaa !35
  store ptr %5, ptr %3, align 8, !tbaa !35
  br label %6

6:                                                ; preds = %39, %1
  %7 = load ptr, ptr %3, align 8, !tbaa !35
  %8 = icmp ne ptr %7, null
  br i1 %8, label %9, label %41

9:                                                ; preds = %6
  %10 = load ptr, ptr %3, align 8, !tbaa !35
  %11 = getelementptr inbounds nuw %struct.item_s, ptr %10, i32 0, i32 3
  %12 = load ptr, ptr %11, align 8, !tbaa !39
  store ptr %12, ptr %4, align 8, !tbaa !35
  %13 = load ptr, ptr %3, align 8, !tbaa !35
  %14 = getelementptr inbounds nuw %struct.item_s, ptr %13, i32 0, i32 0
  %15 = load i32, ptr %14, align 8, !tbaa !36
  %16 = icmp eq i32 %15, 265
  br i1 %16, label %17, label %21

17:                                               ; preds = %9
  %18 = load ptr, ptr %3, align 8, !tbaa !35
  %19 = getelementptr inbounds nuw %struct.item_s, ptr %18, i32 0, i32 1
  %20 = load ptr, ptr %19, align 8, !tbaa !14
  call void @delete_items(ptr noundef %20)
  br label %21

21:                                               ; preds = %17, %9
  %22 = load ptr, ptr %3, align 8, !tbaa !35
  %23 = getelementptr inbounds nuw %struct.item_s, ptr %22, i32 0, i32 0
  %24 = load i32, ptr %23, align 8, !tbaa !36
  %25 = icmp eq i32 %24, 267
  br i1 %25, label %26, label %37

26:                                               ; preds = %21
  %27 = load ptr, ptr @G, align 8, !tbaa !18
  %28 = load ptr, ptr %3, align 8, !tbaa !35
  %29 = getelementptr inbounds nuw %struct.item_s, ptr %28, i32 0, i32 2
  %30 = load ptr, ptr %29, align 8, !tbaa !38
  %31 = load ptr, ptr %3, align 8, !tbaa !35
  %32 = getelementptr inbounds nuw %struct.item_s, ptr %31, i32 0, i32 2
  %33 = load ptr, ptr %32, align 8, !tbaa !38
  %34 = call i32 @aghtmlstr(ptr noundef %33)
  %35 = icmp ne i32 %34, 0
  %36 = call i32 @agstrfree(ptr noundef %27, ptr noundef %30, i1 noundef zeroext %35)
  br label %37

37:                                               ; preds = %26, %21
  %38 = load ptr, ptr %3, align 8, !tbaa !35
  call void @free(ptr noundef %38) #14
  br label %39

39:                                               ; preds = %37
  %40 = load ptr, ptr %4, align 8, !tbaa !35
  store ptr %40, ptr %3, align 8, !tbaa !35
  br label %6, !llvm.loop !70

41:                                               ; preds = %6
  call void @llvm.lifetime.end.p0(i64 8, ptr %4) #14
  call void @llvm.lifetime.end.p0(i64 8, ptr %3) #14
  ret void
}