; Function Attrs: nounwind uwtable
define internal fastcc void @delete_items(ptr noundef captures(address_is_null) %0) unnamed_addr #0 {
  %.not10 = icmp eq ptr %0, null
  br i1 %.not10, label %._crit_edge, label %.lr.ph

.lr.ph:                                           ; preds = %1, %19
  %.011 = phi ptr [ %3, %19 ], [ %0, %1 ]
  %2 = getelementptr inbounds nuw i8, ptr %.011, i64 24
  %3 = load ptr, ptr %2, align 8, !tbaa !31
  %4 = load i32, ptr %.011, align 8, !tbaa !26
  %5 = icmp eq i32 %4, 265
  br i1 %5, label %6, label %9

6:                                                ; preds = %.lr.ph
  %7 = getelementptr inbounds nuw i8, ptr %.011, i64 8
  %8 = load ptr, ptr %7, align 8, !tbaa !7
  tail call fastcc void @delete_items(ptr noundef %8)
  %.pr = load i32, ptr %.011, align 8, !tbaa !26
  br label %9

9:                                                ; preds = %6, %.lr.ph
  %10 = phi i32 [ %.pr, %6 ], [ %4, %.lr.ph ]
  %11 = icmp eq i32 %10, 267
  br i1 %11, label %12, label %19

12:                                               ; preds = %9
  %13 = load ptr, ptr @G, align 8, !tbaa !19
  %14 = getelementptr inbounds nuw i8, ptr %.011, i64 16
  %15 = load ptr, ptr %14, align 8, !tbaa !29
  %16 = tail call i32 @aghtmlstr(ptr noundef %15) #19
  %17 = icmp ne i32 %16, 0
  %18 = tail call i32 @agstrfree(ptr noundef %13, ptr noundef %15, i1 noundef zeroext %17) #19
  br label %19

19:                                               ; preds = %12, %9
  tail call void @free(ptr noundef nonnull %.011) #19
  %.not = icmp eq ptr %3, null
  br i1 %.not, label %._crit_edge, label %.lr.ph, !llvm.loop !52

._crit_edge:                                      ; preds = %19, %1
  ret void
}